; ModuleID = '9/544.c'
source_filename = "9/544.c"
target datalayout = "e-m:e-p270:32:32-p271:32:32-p272:64:64-i64:64-f80:128-n8:16:32:64-S128"
target triple = "x86_64-pc-linux-gnu"

@.str = private unnamed_addr constant [3 x i8] c"%d\00", align 1
@.str.1 = private unnamed_addr constant [6 x i8] c"%s %d\00", align 1
@.str.2 = private unnamed_addr constant [4 x i8] c"%s\0A\00", align 1

; Function Attrs: noinline nounwind uwtable
define dso_local i32 @main() #0 {
  %1 = alloca i32, align 4
  %2 = alloca i32, align 4
  %3 = alloca i32, align 4
  %4 = alloca [100 x i32], align 16
  %5 = alloca i32, align 4
  %6 = alloca i32, align 4
  %7 = alloca i32, align 4
  %8 = alloca i32, align 4
  %9 = alloca i32, align 4
  %10 = alloca i32, align 4
  %11 = alloca i32, align 4
  %12 = alloca i32, align 4
  %13 = alloca [100 x [100 x i8]], align 16
  store i32 0, i32* %1, align 4
  %14 = call i32 (i8*, ...) @__isoc99_scanf(i8* getelementptr inbounds ([3 x i8], [3 x i8]* @.str, i64 0, i64 0), i32* %2)
  store i32 0, i32* %3, align 4
  br label %15

15:                                               ; preds = %28, %0
  %16 = load i32, i32* %3, align 4
  %17 = load i32, i32* %2, align 4
  %18 = icmp slt i32 %16, %17
  br i1 %18, label %19, label %31

19:                                               ; preds = %15
  %20 = load i32, i32* %3, align 4
  %21 = sext i32 %20 to i64
  %22 = getelementptr inbounds [100 x [100 x i8]], [100 x [100 x i8]]* %13, i64 0, i64 %21
  %23 = getelementptr inbounds [100 x i8], [100 x i8]* %22, i64 0, i64 0
  %24 = load i32, i32* %3, align 4
  %25 = sext i32 %24 to i64
  %26 = getelementptr inbounds [100 x i32], [100 x i32]* %4, i64 0, i64 %25
  %27 = call i32 (i8*, ...) @__isoc99_scanf(i8* getelementptr inbounds ([6 x i8], [6 x i8]* @.str.1, i64 0, i64 0), i8* %23, i32* %26)
  br label %28

28:                                               ; preds = %19
  %29 = load i32, i32* %3, align 4
  %30 = add nsw i32 %29, 1
  store i32 %30, i32* %3, align 4
  br label %15

31:                                               ; preds = %15
  store i32 0, i32* %5, align 4
  br label %32

32:                                               ; preds = %45, %31
  %33 = load i32, i32* %5, align 4
  %34 = load i32, i32* %2, align 4
  %35 = icmp slt i32 %33, %34
  br i1 %35, label %36, label %48

36:                                               ; preds = %32
  %37 = load i32, i32* %5, align 4
  %38 = sext i32 %37 to i64
  %39 = getelementptr inbounds [100 x i32], [100 x i32]* %4, i64 0, i64 %38
  %40 = load i32, i32* %39, align 4
  %41 = icmp sge i32 %40, 60
  br i1 %41, label %42, label %44

42:                                               ; preds = %36
  %43 = load i32, i32* %5, align 4
  store i32 %43, i32* %8, align 4
  br label %48

44:                                               ; preds = %36
  br label %45

45:                                               ; preds = %44
  %46 = load i32, i32* %5, align 4
  %47 = add nsw i32 %46, 1
  store i32 %47, i32* %5, align 4
  br label %32

48:                                               ; preds = %42, %32
  store i32 0, i32* %5, align 4
  store i32 0, i32* %7, align 4
  br label %49

49:                                               ; preds = %63, %48
  %50 = load i32, i32* %5, align 4
  %51 = load i32, i32* %2, align 4
  %52 = icmp slt i32 %50, %51
  br i1 %52, label %53, label %66

53:                                               ; preds = %49
  %54 = load i32, i32* %5, align 4
  %55 = sext i32 %54 to i64
  %56 = getelementptr inbounds [100 x i32], [100 x i32]* %4, i64 0, i64 %55
  %57 = load i32, i32* %56, align 4
  %58 = icmp sge i32 %57, 60
  br i1 %58, label %59, label %62

59:                                               ; preds = %53
  %60 = load i32, i32* %7, align 4
  %61 = add nsw i32 %60, 1
  store i32 %61, i32* %7, align 4
  br label %62

62:                                               ; preds = %59, %53
  br label %63

63:                                               ; preds = %62
  %64 = load i32, i32* %5, align 4
  %65 = add nsw i32 %64, 1
  store i32 %65, i32* %5, align 4
  br label %49

66:                                               ; preds = %49
  store i32 1, i32* %10, align 4
  br label %67

67:                                               ; preds = %108, %66
  %68 = load i32, i32* %10, align 4
  %69 = load i32, i32* %7, align 4
  %70 = icmp sle i32 %68, %69
  br i1 %70, label %71, label %111

71:                                               ; preds = %67
  store i32 0, i32* %5, align 4
  br label %72

72:                                               ; preds = %96, %71
  %73 = load i32, i32* %5, align 4
  %74 = load i32, i32* %2, align 4
  %75 = icmp slt i32 %73, %74
  br i1 %75, label %76, label %99

76:                                               ; preds = %72
  %77 = load i32, i32* %5, align 4
  %78 = sext i32 %77 to i64
  %79 = getelementptr inbounds [100 x i32], [100 x i32]* %4, i64 0, i64 %78
  %80 = load i32, i32* %79, align 4
  %81 = icmp sge i32 %80, 60
  br i1 %81, label %82, label %95

82:                                               ; preds = %76
  %83 = load i32, i32* %8, align 4
  %84 = sext i32 %83 to i64
  %85 = getelementptr inbounds [100 x i32], [100 x i32]* %4, i64 0, i64 %84
  %86 = load i32, i32* %85, align 4
  %87 = load i32, i32* %5, align 4
  %88 = sext i32 %87 to i64
  %89 = getelementptr inbounds [100 x i32], [100 x i32]* %4, i64 0, i64 %88
  %90 = load i32, i32* %89, align 4
  %91 = icmp slt i32 %86, %90
  br i1 %91, label %92, label %94

92:                                               ; preds = %82
  %93 = load i32, i32* %5, align 4
  store i32 %93, i32* %8, align 4
  br label %94

94:                                               ; preds = %92, %82
  br label %95

95:                                               ; preds = %94, %76
  br label %96

96:                                               ; preds = %95
  %97 = load i32, i32* %5, align 4
  %98 = add nsw i32 %97, 1
  store i32 %98, i32* %5, align 4
  br label %72

99:                                               ; preds = %72
  %100 = load i32, i32* %8, align 4
  %101 = sext i32 %100 to i64
  %102 = getelementptr inbounds [100 x [100 x i8]], [100 x [100 x i8]]* %13, i64 0, i64 %101
  %103 = getelementptr inbounds [100 x i8], [100 x i8]* %102, i64 0, i64 0
  %104 = call i32 (i8*, ...) @printf(i8* getelementptr inbounds ([4 x i8], [4 x i8]* @.str.2, i64 0, i64 0), i8* %103)
  %105 = load i32, i32* %8, align 4
  %106 = sext i32 %105 to i64
  %107 = getelementptr inbounds [100 x i32], [100 x i32]* %4, i64 0, i64 %106
  store i32 0, i32* %107, align 4
  br label %108

108:                                              ; preds = %99
  %109 = load i32, i32* %10, align 4
  %110 = add nsw i32 %109, 1
  store i32 %110, i32* %10, align 4
  br label %67

111:                                              ; preds = %67
  store i32 0, i32* %12, align 4
  br label %112

112:                                              ; preds = %129, %111
  %113 = load i32, i32* %12, align 4
  %114 = load i32, i32* %2, align 4
  %115 = icmp slt i32 %113, %114
  br i1 %115, label %116, label %132

116:                                              ; preds = %112
  %117 = load i32, i32* %12, align 4
  %118 = sext i32 %117 to i64
  %119 = getelementptr inbounds [100 x i32], [100 x i32]* %4, i64 0, i64 %118
  %120 = load i32, i32* %119, align 4
  %121 = icmp ne i32 %120, 0
  br i1 %121, label %122, label %128

122:                                              ; preds = %116
  %123 = load i32, i32* %12, align 4
  %124 = sext i32 %123 to i64
  %125 = getelementptr inbounds [100 x [100 x i8]], [100 x [100 x i8]]* %13, i64 0, i64 %124
  %126 = getelementptr inbounds [100 x i8], [100 x i8]* %125, i64 0, i64 0
  %127 = call i32 (i8*, ...) @printf(i8* getelementptr inbounds ([4 x i8], [4 x i8]* @.str.2, i64 0, i64 0), i8* %126)
  br label %128

128:                                              ; preds = %122, %116
  br label %129

129:                                              ; preds = %128
  %130 = load i32, i32* %12, align 4
  %131 = add nsw i32 %130, 1
  store i32 %131, i32* %12, align 4
  br label %112

132:                                              ; preds = %112
  %133 = call i32 @getchar()
  %134 = call i32 @getchar()
  %135 = load i32, i32* %1, align 4
  ret i32 %135
}

declare dso_local i32 @__isoc99_scanf(i8*, ...) #1

declare dso_local i32 @printf(i8*, ...) #1

declare dso_local i32 @getchar() #1


!llvm.module.flags = !{!0}
!llvm.ident = !{!1}

!0 = !{i32 1, !"wchar_size", i32 4}
!1 = !{!"clang version 10.0.0-4ubuntu1 "}
